; Function Attrs: mustprogress uwtable
define dso_local void @_ZN4i18n12phonenumbers12safe_strto32ERKNSt7__cxx1112basic_stringIcSt11char_traitsIcESaIcEEEPi(ptr noundef nonnull readonly align 8 captures(none) dereferenceable(32) %0, ptr noundef writeonly captures(none) %1) local_unnamed_addr #0 personality ptr @__gxx_personality_v0 {
  %3 = alloca i32, align 4
  %4 = getelementptr inbounds nuw i8, ptr %0, i64 8
  %5 = load i64, ptr %4, align 8, !tbaa !10
  %6 = icmp sgt i64 %5, -1
  br i1 %6, label %_ZN4absl7debian211string_viewC2ISaIcEEERKNSt7__cxx1112basic_stringIcSt11char_traitsIcET_EE.exit.i, label %7, !prof !17

7:                                                ; preds = %2
  tail call void @llvm.trap()
  unreachable

_ZN4absl7debian211string_viewC2ISaIcEEERKNSt7__cxx1112basic_stringIcSt11char_traitsIcET_EE.exit.i: ; preds = %2
  %8 = load ptr, ptr %0, align 8, !tbaa !14
  call void @llvm.lifetime.start.p0(i64 4, ptr nonnull %3) #19
  %9 = call noundef zeroext i1 @_ZN4absl7debian216numbers_internal17safe_strto32_baseENS0_11string_viewEPii(ptr %8, i64 %5, ptr noundef nonnull %3, i32 noundef 10)
  %10 = load i32, ptr %3, align 4, !tbaa !61
  store i32 %10, ptr %1, align 4, !tbaa !61
  call void @llvm.lifetime.end.p0(i64 4, ptr nonnull %3) #19
  br i1 %9, label %_ZN4i18n12phonenumbers11GenericAtoiIiEEvRKNSt7__cxx1112basic_stringIcSt11char_traitsIcESaIcEEEPT_.exit, label %11

11:                                               ; preds = %_ZN4absl7debian211string_viewC2ISaIcEEERKNSt7__cxx1112basic_stringIcSt11char_traitsIcET_EE.exit.i
  store i32 0, ptr %1, align 4, !tbaa !61
  br label %_ZN4i18n12phonenumbers11GenericAtoiIiEEvRKNSt7__cxx1112basic_stringIcSt11char_traitsIcESaIcEEEPT_.exit

_ZN4i18n12phonenumbers11GenericAtoiIiEEvRKNSt7__cxx1112basic_stringIcSt11char_traitsIcESaIcEEEPT_.exit: ; preds = %_ZN4absl7debian211string_viewC2ISaIcEEERKNSt7__cxx1112basic_stringIcSt11char_traitsIcET_EE.exit.i, %11
  ret void
}